target datalayout = "e-m:e-p270:32:32-p271:32:32-p272:64:64-i64:64-i128:128-f80:128-n8:16:32:64-S128"
target triple = "x86_64-pc-linux-gnu"

@.str.28 = private unnamed_addr constant [4 x i8] c"reg\00", align 1
@.str.30 = private unnamed_addr constant [10 x i8] c"reg-shift\00", align 1
@.str.31 = private unnamed_addr constant [13 x i8] c"reg-io-width\00", align 1
@.str.32 = private unnamed_addr constant [11 x i8] c"interrupts\00", align 1

; Function Attrs: inlinehint mustprogress nounwind uwtable
define internal noundef i32 @_ZL12fdt32_to_cpuj(i32 noundef %0) #9 {
  %2 = alloca i32, align 4
  store i32 %0, ptr %2, align 4, !tbaa !88
  %3 = getelementptr inbounds i8, ptr %2, i64 0
  %4 = load i8, ptr %3, align 4, !tbaa !41
  %5 = zext i8 %4 to i64
  %6 = shl i64 %5, 24
  %7 = getelementptr inbounds i8, ptr %2, i64 1
  %8 = load i8, ptr %7, align 1, !tbaa !41
  %9 = zext i8 %8 to i64
  %10 = shl i64 %9, 16
  %11 = or i64 %6, %10
  %12 = getelementptr inbounds i8, ptr %2, i64 2
  %13 = load i8, ptr %12, align 2, !tbaa !41
  %14 = zext i8 %13 to i64
  %15 = shl i64 %14, 8
  %16 = or i64 %11, %15
  %17 = getelementptr inbounds i8, ptr %2, i64 3
  %18 = load i8, ptr %17, align 1, !tbaa !41
  %19 = zext i8 %18 to i64
  %20 = or i64 %16, %19
  %21 = trunc i64 %20 to i32
  ret i32 %21
}

; Function Attrs: mustprogress uwtable
define noundef i32 @_Z22fdt_get_node_addr_sizePKviPmS1_PKc(ptr noundef %0, i32 noundef %1, ptr noundef %2, ptr noundef %3, ptr noundef %4) #4 {
  %6 = alloca i32, align 4
  %7 = alloca ptr, align 8
  %8 = alloca i32, align 4
  %9 = alloca ptr, align 8
  %10 = alloca ptr, align 8
  %11 = alloca ptr, align 8
  %12 = alloca i32, align 4
  %13 = alloca i32, align 4
  %14 = alloca i32, align 4
  %15 = alloca i32, align 4
  %16 = alloca i32, align 4
  %17 = alloca ptr, align 8
  %18 = alloca ptr, align 8
  %19 = alloca i64, align 8
  %20 = alloca i32, align 4
  store ptr %0, ptr %7, align 8, !tbaa !57
  store i32 %1, ptr %8, align 4, !tbaa !88
  store ptr %2, ptr %9, align 8, !tbaa !91
  store ptr %3, ptr %10, align 8, !tbaa !91
  store ptr %4, ptr %11, align 8, !tbaa !36
  call void @llvm.lifetime.start.p0(i64 4, ptr %12) #3
  call void @llvm.lifetime.start.p0(i64 4, ptr %13) #3
  call void @llvm.lifetime.start.p0(i64 4, ptr %14) #3
  call void @llvm.lifetime.start.p0(i64 4, ptr %15) #3
  call void @llvm.lifetime.start.p0(i64 4, ptr %16) #3
  call void @llvm.lifetime.start.p0(i64 8, ptr %17) #3
  call void @llvm.lifetime.start.p0(i64 8, ptr %18) #3
  call void @llvm.lifetime.start.p0(i64 8, ptr %19) #3
  store i64 0, ptr %19, align 8, !tbaa !3
  %21 = load ptr, ptr %7, align 8, !tbaa !57
  %22 = load i32, ptr %8, align 4, !tbaa !88
  %23 = call i32 @fdt_parent_offset(ptr noundef %21, i32 noundef %22)
  store i32 %23, ptr %12, align 4, !tbaa !88
  %24 = load i32, ptr %12, align 4, !tbaa !88
  %25 = icmp slt i32 %24, 0
  br i1 %25, label %26, label %28

26:                                               ; preds = %5
  %27 = load i32, ptr %12, align 4, !tbaa !88
  store i32 %27, ptr %6, align 4
  store i32 1, ptr %20, align 4
  br label %105

28:                                               ; preds = %5
  %29 = load ptr, ptr %7, align 8, !tbaa !57
  %30 = load i32, ptr %12, align 4, !tbaa !88
  %31 = call i32 @fdt_address_cells(ptr noundef %29, i32 noundef %30)
  store i32 %31, ptr %15, align 4, !tbaa !88
  %32 = load i32, ptr %15, align 4, !tbaa !88
  %33 = icmp slt i32 %32, 1
  br i1 %33, label %34, label %35

34:                                               ; preds = %28
  store i32 -19, ptr %6, align 4
  store i32 1, ptr %20, align 4
  br label %105

35:                                               ; preds = %28
  %36 = load ptr, ptr %7, align 8, !tbaa !57
  %37 = load i32, ptr %12, align 4, !tbaa !88
  %38 = call i32 @fdt_size_cells(ptr noundef %36, i32 noundef %37)
  store i32 %38, ptr %16, align 4, !tbaa !88
  %39 = load i32, ptr %16, align 4, !tbaa !88
  %40 = icmp slt i32 %39, 0
  br i1 %40, label %41, label %42

41:                                               ; preds = %35
  store i32 -19, ptr %6, align 4
  store i32 1, ptr %20, align 4
  br label %105

42:                                               ; preds = %35
  %43 = load ptr, ptr %11, align 8, !tbaa !36
  %44 = icmp ne ptr %43, null
  br i1 %44, label %46, label %45

45:                                               ; preds = %42
  store i32 -19, ptr %6, align 4
  store i32 1, ptr %20, align 4
  br label %105

46:                                               ; preds = %42
  %47 = load ptr, ptr %7, align 8, !tbaa !57
  %48 = load i32, ptr %8, align 4, !tbaa !88
  %49 = load ptr, ptr %11, align 8, !tbaa !36
  %50 = call ptr @fdt_getprop(ptr noundef %47, i32 noundef %48, ptr noundef %49, ptr noundef %13)
  store ptr %50, ptr %17, align 8, !tbaa !92
  %51 = load ptr, ptr %17, align 8, !tbaa !92
  %52 = icmp ne ptr %51, null
  br i1 %52, label %54, label %53

53:                                               ; preds = %46
  store i32 -19, ptr %6, align 4
  store i32 1, ptr %20, align 4
  br label %105

54:                                               ; preds = %46
  %55 = load ptr, ptr %17, align 8, !tbaa !92
  %56 = load i32, ptr %15, align 4, !tbaa !88
  %57 = sext i32 %56 to i64
  %58 = getelementptr inbounds i32, ptr %55, i64 %57
  store ptr %58, ptr %18, align 8, !tbaa !92
  %59 = load ptr, ptr %9, align 8, !tbaa !91
  %60 = icmp ne ptr %59, null
  br i1 %60, label %61, label %81

61:                                               ; preds = %54
  store i32 0, ptr %14, align 4, !tbaa !88
  br label %62

62:                                               ; preds = %75, %61
  %63 = load i32, ptr %14, align 4, !tbaa !88
  %64 = load i32, ptr %15, align 4, !tbaa !88
  %65 = icmp slt i32 %63, %64
  br i1 %65, label %66, label %78

66:                                               ; preds = %62
  %67 = load i64, ptr %19, align 8, !tbaa !3
  %68 = shl i64 %67, 32
  %69 = load ptr, ptr %17, align 8, !tbaa !92
  %70 = getelementptr inbounds nuw i32, ptr %69, i32 1
  store ptr %70, ptr %17, align 8, !tbaa !92
  %71 = load i32, ptr %69, align 4, !tbaa !88
  %72 = call noundef i32 @_ZL12fdt32_to_cpuj(i32 noundef %71)
  %73 = zext i32 %72 to i64
  %74 = or i64 %68, %73
  store i64 %74, ptr %19, align 8, !tbaa !3
  br label %75

75:                                               ; preds = %66
  %76 = load i32, ptr %14, align 4, !tbaa !88
  %77 = add nsw i32 %76, 1
  store i32 %77, ptr %14, align 4, !tbaa !88
  br label %62, !llvm.loop !94

78:                                               ; preds = %62
  %79 = load i64, ptr %19, align 8, !tbaa !3
  %80 = load ptr, ptr %9, align 8, !tbaa !91
  store i64 %79, ptr %80, align 8, !tbaa !3
  br label %81

81:                                               ; preds = %78, %54
  store i64 0, ptr %19, align 8, !tbaa !3
  %82 = load ptr, ptr %10, align 8, !tbaa !91
  %83 = icmp ne ptr %82, null
  br i1 %83, label %84, label %104

84:                                               ; preds = %81
  store i32 0, ptr %14, align 4, !tbaa !88
  br label %85

85:                                               ; preds = %98, %84
  %86 = load i32, ptr %14, align 4, !tbaa !88
  %87 = load i32, ptr %16, align 4, !tbaa !88
  %88 = icmp slt i32 %86, %87
  br i1 %88, label %89, label %101

89:                                               ; preds = %85
  %90 = load i64, ptr %19, align 8, !tbaa !3
  %91 = shl i64 %90, 32
  %92 = load ptr, ptr %18, align 8, !tbaa !92
  %93 = getelementptr inbounds nuw i32, ptr %92, i32 1
  store ptr %93, ptr %18, align 8, !tbaa !92
  %94 = load i32, ptr %92, align 4, !tbaa !88
  %95 = call noundef i32 @_ZL12fdt32_to_cpuj(i32 noundef %94)
  %96 = zext i32 %95 to i64
  %97 = or i64 %91, %96
  store i64 %97, ptr %19, align 8, !tbaa !3
  br label %98

98:                                               ; preds = %89
  %99 = load i32, ptr %14, align 4, !tbaa !88
  %100 = add nsw i32 %99, 1
  store i32 %100, ptr %14, align 4, !tbaa !88
  br label %85, !llvm.loop !95

101:                                              ; preds = %85
  %102 = load i64, ptr %19, align 8, !tbaa !3
  %103 = load ptr, ptr %10, align 8, !tbaa !91
  store i64 %102, ptr %103, align 8, !tbaa !3
  br label %104

104:                                              ; preds = %101, %81
  store i32 0, ptr %6, align 4
  store i32 1, ptr %20, align 4
  br label %105

105:                                              ; preds = %104, %53, %45, %41, %34, %26
  call void @llvm.lifetime.end.p0(i64 8, ptr %19) #3
  call void @llvm.lifetime.end.p0(i64 8, ptr %18) #3
  call void @llvm.lifetime.end.p0(i64 8, ptr %17) #3
  call void @llvm.lifetime.end.p0(i64 4, ptr %16) #3
  call void @llvm.lifetime.end.p0(i64 4, ptr %15) #3
  call void @llvm.lifetime.end.p0(i64 4, ptr %14) #3
  call void @llvm.lifetime.end.p0(i64 4, ptr %13) #3
  call void @llvm.lifetime.end.p0(i64 4, ptr %12) #3
  %106 = load i32, ptr %6, align 4
  ret i32 %106
}

; Function Attrs: mustprogress uwtable
define noundef i32 @_Z17fdt_parse_ns16550PKvPmPjS2_S2_PKc(ptr noundef %0, ptr noundef %1, ptr noundef %2, ptr noundef %3, ptr noundef %4, ptr noundef %5) #4 {
  %7 = alloca i32, align 4
  %8 = alloca ptr, align 8
  %9 = alloca ptr, align 8
  %10 = alloca ptr, align 8
  %11 = alloca ptr, align 8
  %12 = alloca ptr, align 8
  %13 = alloca ptr, align 8
  %14 = alloca i32, align 4
  %15 = alloca i32, align 4
  %16 = alloca i32, align 4
  %17 = alloca ptr, align 8
  %18 = alloca i32, align 4
  store ptr %0, ptr %8, align 8, !tbaa !57
  store ptr %1, ptr %9, align 8, !tbaa !91
  store ptr %2, ptr %10, align 8, !tbaa !92
  store ptr %3, ptr %11, align 8, !tbaa !92
  store ptr %4, ptr %12, align 8, !tbaa !92
  store ptr %5, ptr %13, align 8, !tbaa !36
  call void @llvm.lifetime.start.p0(i64 4, ptr %14) #3
  call void @llvm.lifetime.start.p0(i64 4, ptr %15) #3
  call void @llvm.lifetime.start.p0(i64 4, ptr %16) #3
  call void @llvm.lifetime.start.p0(i64 8, ptr %17) #3
  %19 = load ptr, ptr %8, align 8, !tbaa !57
  %20 = load ptr, ptr %13, align 8, !tbaa !36
  %21 = call i32 @fdt_node_offset_by_compatible(ptr noundef %19, i32 noundef -1, ptr noundef %20)
  store i32 %21, ptr %14, align 4, !tbaa !88
  %22 = load i32, ptr %14, align 4, !tbaa !88
  %23 = icmp slt i32 %22, 0
  br i1 %23, label %24, label %26

24:                                               ; preds = %6
  %25 = load i32, ptr %14, align 4, !tbaa !88
  store i32 %25, ptr %7, align 4
  store i32 1, ptr %18, align 4
  br label %89

26:                                               ; preds = %6
  %27 = load ptr, ptr %8, align 8, !tbaa !57
  %28 = load i32, ptr %14, align 4, !tbaa !88
  %29 = load ptr, ptr %9, align 8, !tbaa !91
  %30 = call noundef i32 @_Z22fdt_get_node_addr_sizePKviPmS1_PKc(ptr noundef %27, i32 noundef %28, ptr noundef %29, ptr noundef null, ptr noundef @.str.28)
  store i32 %30, ptr %16, align 4, !tbaa !88
  %31 = load i32, ptr %16, align 4, !tbaa !88
  %32 = icmp slt i32 %31, 0
  br i1 %32, label %36, label %33

33:                                               ; preds = %26
  %34 = load ptr, ptr %9, align 8, !tbaa !91
  %35 = icmp ne ptr %34, null
  br i1 %35, label %37, label %36

36:                                               ; preds = %33, %26
  store i32 -19, ptr %7, align 4
  store i32 1, ptr %18, align 4
  br label %89

37:                                               ; preds = %33
  %38 = load ptr, ptr %8, align 8, !tbaa !57
  %39 = load i32, ptr %14, align 4, !tbaa !88
  %40 = call ptr @fdt_getprop(ptr noundef %38, i32 noundef %39, ptr noundef @.str.30, ptr noundef %15)
  store ptr %40, ptr %17, align 8, !tbaa !92
  %41 = load ptr, ptr %10, align 8, !tbaa !92
  %42 = icmp ne ptr %41, null
  br i1 %42, label %43, label %54

43:                                               ; preds = %37
  %44 = load ptr, ptr %17, align 8, !tbaa !92
  %45 = icmp ne ptr %44, null
  br i1 %45, label %46, label %51

46:                                               ; preds = %43
  %47 = load ptr, ptr %17, align 8, !tbaa !92
  %48 = load i32, ptr %47, align 4, !tbaa !88
  %49 = call noundef i32 @_ZL12fdt32_to_cpuj(i32 noundef %48)
  %50 = load ptr, ptr %10, align 8, !tbaa !92
  store i32 %49, ptr %50, align 4, !tbaa !88
  br label %53

51:                                               ; preds = %43
  %52 = load ptr, ptr %10, align 8, !tbaa !92
  store i32 0, ptr %52, align 4, !tbaa !88
  br label %53

53:                                               ; preds = %51, %46
  br label %54

54:                                               ; preds = %53, %37
  %55 = load ptr, ptr %8, align 8, !tbaa !57
  %56 = load i32, ptr %14, align 4, !tbaa !88
  %57 = call ptr @fdt_getprop(ptr noundef %55, i32 noundef %56, ptr noundef @.str.31, ptr noundef %15)
  store ptr %57, ptr %17, align 8, !tbaa !92
  %58 = load ptr, ptr %11, align 8, !tbaa !92
  %59 = icmp ne ptr %58, null
  br i1 %59, label %60, label %71

60:                                               ; preds = %54
  %61 = load ptr, ptr %17, align 8, !tbaa !92
  %62 = icmp ne ptr %61, null
  br i1 %62, label %63, label %68

63:                                               ; preds = %60
  %64 = load ptr, ptr %17, align 8, !tbaa !92
  %65 = load i32, ptr %64, align 4, !tbaa !88
  %66 = call noundef i32 @_ZL12fdt32_to_cpuj(i32 noundef %65)
  %67 = load ptr, ptr %11, align 8, !tbaa !92
  store i32 %66, ptr %67, align 4, !tbaa !88
  br label %70

68:                                               ; preds = %60
  %69 = load ptr, ptr %11, align 8, !tbaa !92
  store i32 1, ptr %69, align 4, !tbaa !88
  br label %70

70:                                               ; preds = %68, %63
  br label %71

71:                                               ; preds = %70, %54
  %72 = load ptr, ptr %8, align 8, !tbaa !57
  %73 = load i32, ptr %14, align 4, !tbaa !88
  %74 = call ptr @fdt_getprop(ptr noundef %72, i32 noundef %73, ptr noundef @.str.32, ptr noundef %15)
  store ptr %74, ptr %17, align 8, !tbaa !92
  %75 = load ptr, ptr %12, align 8, !tbaa !92
  %76 = icmp ne ptr %75, null
  br i1 %76, label %77, label %88

77:                                               ; preds = %71
  %78 = load ptr, ptr %17, align 8, !tbaa !92
  %79 = icmp ne ptr %78, null
  br i1 %79, label %80, label %85

80:                                               ; preds = %77
  %81 = load ptr, ptr %17, align 8, !tbaa !92
  %82 = load i32, ptr %81, align 4, !tbaa !88
  %83 = call noundef i32 @_ZL12fdt32_to_cpuj(i32 noundef %82)
  %84 = load ptr, ptr %12, align 8, !tbaa !92
  store i32 %83, ptr %84, align 4, !tbaa !88
  br label %87

85:                                               ; preds = %77
  %86 = load ptr, ptr %12, align 8, !tbaa !92
  store i32 1, ptr %86, align 4, !tbaa !88
  br label %87

87:                                               ; preds = %85, %80
  br label %88

88:                                               ; preds = %87, %71
  store i32 0, ptr %7, align 4
  store i32 1, ptr %18, align 4
  br label %89

89:                                               ; preds = %88, %36, %24
  call void @llvm.lifetime.end.p0(i64 8, ptr %17) #3
  call void @llvm.lifetime.end.p0(i64 4, ptr %16) #3
  call void @llvm.lifetime.end.p0(i64 4, ptr %15) #3
  call void @llvm.lifetime.end.p0(i64 4, ptr %14) #3
  %90 = load i32, ptr %7, align 4
  ret i32 %90
}