; Function Attrs: mustprogress uwtable
define noundef range(i32 -2147483648, 1) i32 @_Z17fdt_parse_ns16550PKvPmPjS2_S2_PKc(ptr noundef %0, ptr noundef writeonly captures(address_is_null) %1, ptr noundef writeonly captures(address_is_null) %2, ptr noundef writeonly captures(address_is_null) %3, ptr noundef writeonly captures(address_is_null) %4, ptr noundef %5) local_unnamed_addr #3 {
  %7 = alloca i32, align 4
  %8 = alloca i32, align 4
  call void @llvm.lifetime.start.p0(i64 4, ptr nonnull %8) #22
  %9 = tail call i32 @fdt_node_offset_by_compatible(ptr noundef %0, i32 noundef -1, ptr noundef %5)
  %10 = icmp slt i32 %9, 0
  br i1 %10, label %43, label %11

11:                                               ; preds = %6
  call void @llvm.lifetime.start.p0(i64 4, ptr nonnull %7) #22
  %12 = tail call i32 @fdt_parent_offset(ptr noundef %0, i32 noundef %9)
  %13 = icmp slt i32 %12, 0
  br i1 %13, label %_Z22fdt_get_node_addr_sizePKviPmS1_PKc.exit.thread, label %14

14:                                               ; preds = %11
  %15 = tail call i32 @fdt_address_cells(ptr noundef %0, i32 noundef %12)
  %16 = icmp slt i32 %15, 1
  br i1 %16, label %_Z22fdt_get_node_addr_sizePKviPmS1_PKc.exit.thread, label %17

17:                                               ; preds = %14
  %18 = tail call i32 @fdt_size_cells(ptr noundef %0, i32 noundef %12)
  %19 = icmp slt i32 %18, 0
  br i1 %19, label %_Z22fdt_get_node_addr_sizePKviPmS1_PKc.exit.thread, label %20

20:                                               ; preds = %17
  %21 = call ptr @fdt_getprop(ptr noundef %0, i32 noundef %9, ptr noundef nonnull @.str.28, ptr noundef nonnull %7)
  %.not46.i = icmp eq ptr %21, null
  %.not47.i = icmp eq ptr %1, null
  %or.cond47 = or i1 %.not47.i, %.not46.i
  br i1 %or.cond47, label %_Z22fdt_get_node_addr_sizePKviPmS1_PKc.exit.thread, label %.lr.ph.i

.lr.ph.i:                                         ; preds = %20, %.lr.ph.i
  %.053.i = phi i64 [ %26, %.lr.ph.i ], [ 0, %20 ]
  %.03452.i = phi ptr [ %23, %.lr.ph.i ], [ %21, %20 ]
  %.03651.i = phi i32 [ %27, %.lr.ph.i ], [ 0, %20 ]
  %22 = shl i64 %.053.i, 32
  %23 = getelementptr inbounds nuw i8, ptr %.03452.i, i64 4
  %24 = load i32, ptr %.03452.i, align 4, !tbaa !95
  %rev.i.i = call noundef i32 @llvm.bswap.i32(i32 %24)
  %25 = zext i32 %rev.i.i to i64
  %26 = or disjoint i64 %22, %25
  %27 = add nuw nsw i32 %.03651.i, 1
  %exitcond.not.i = icmp eq i32 %27, %15
  br i1 %exitcond.not.i, label %_Z22fdt_get_node_addr_sizePKviPmS1_PKc.exit, label %.lr.ph.i, !llvm.loop !105

_Z22fdt_get_node_addr_sizePKviPmS1_PKc.exit.thread: ; preds = %11, %14, %17, %20
  call void @llvm.lifetime.end.p0(i64 4, ptr nonnull %7) #22
  br label %43

_Z22fdt_get_node_addr_sizePKviPmS1_PKc.exit:      ; preds = %.lr.ph.i
  store i64 %26, ptr %1, align 8, !tbaa !52
  call void @llvm.lifetime.end.p0(i64 4, ptr nonnull %7) #22
  %28 = call ptr @fdt_getprop(ptr noundef %0, i32 noundef %9, ptr noundef nonnull @.str.30, ptr noundef nonnull %8)
  %.not = icmp eq ptr %2, null
  br i1 %.not, label %32, label %29

29:                                               ; preds = %_Z22fdt_get_node_addr_sizePKviPmS1_PKc.exit
  %.not38 = icmp eq ptr %28, null
  br i1 %.not38, label %.sink.split, label %30

30:                                               ; preds = %29
  %31 = load i32, ptr %28, align 4, !tbaa !95
  %rev.i = call noundef i32 @llvm.bswap.i32(i32 %31)
  br label %.sink.split

.sink.split:                                      ; preds = %29, %30
  %rev.i.sink = phi i32 [ %rev.i, %30 ], [ 0, %29 ]
  store i32 %rev.i.sink, ptr %2, align 4, !tbaa !95
  br label %32

32:                                               ; preds = %.sink.split, %_Z22fdt_get_node_addr_sizePKviPmS1_PKc.exit
  %33 = call ptr @fdt_getprop(ptr noundef %0, i32 noundef %9, ptr noundef nonnull @.str.31, ptr noundef nonnull %8)
  %.not39 = icmp eq ptr %3, null
  br i1 %.not39, label %37, label %34

34:                                               ; preds = %32
  %.not40 = icmp eq ptr %33, null
  br i1 %.not40, label %.sink.split48, label %35

35:                                               ; preds = %34
  %36 = load i32, ptr %33, align 4, !tbaa !95
  %rev.i43 = call noundef i32 @llvm.bswap.i32(i32 %36)
  br label %.sink.split48

.sink.split48:                                    ; preds = %34, %35
  %rev.i43.sink = phi i32 [ %rev.i43, %35 ], [ 1, %34 ]
  store i32 %rev.i43.sink, ptr %3, align 4, !tbaa !95
  br label %37

37:                                               ; preds = %.sink.split48, %32
  %38 = call ptr @fdt_getprop(ptr noundef %0, i32 noundef %9, ptr noundef nonnull @.str.32, ptr noundef nonnull %8)
  %.not41 = icmp eq ptr %4, null
  br i1 %.not41, label %43, label %39

39:                                               ; preds = %37
  %.not42 = icmp eq ptr %38, null
  br i1 %.not42, label %42, label %40

40:                                               ; preds = %39
  %41 = load i32, ptr %38, align 4, !tbaa !95
  %rev.i44 = call noundef i32 @llvm.bswap.i32(i32 %41)
  store i32 %rev.i44, ptr %4, align 4, !tbaa !95
  br label %43

42:                                               ; preds = %39
  store i32 1, ptr %4, align 4, !tbaa !95
  br label %43

43:                                               ; preds = %_Z22fdt_get_node_addr_sizePKviPmS1_PKc.exit.thread, %37, %42, %40, %6
  %.0 = phi i32 [ %9, %6 ], [ 0, %40 ], [ 0, %42 ], [ 0, %37 ], [ -19, %_Z22fdt_get_node_addr_sizePKviPmS1_PKc.exit.thread ]
  call void @llvm.lifetime.end.p0(i64 4, ptr nonnull %8) #22
  ret i32 %.0
}